; Function Attrs: mustprogress uwtable
define void @_ZN6icu_776NFRule12setBaseValueElR10UErrorCode(ptr noundef nonnull align 8 captures(none) dereferenceable(112) initializes((0, 14)) %0, i64 noundef %1, ptr noundef nonnull align 4 dereferenceable(4) %2) local_unnamed_addr #0 align 2 {
  store i64 %1, ptr %0, align 8, !tbaa !3
  %4 = getelementptr inbounds nuw i8, ptr %0, i64 8
  store i32 10, ptr %4, align 8, !tbaa !18
  %5 = icmp sgt i64 %1, 0
  br i1 %5, label %_ZNK6icu_776NFRule16expectedExponentEv.exit, label %34

_ZNK6icu_776NFRule16expectedExponentEv.exit:      ; preds = %3
  %6 = uitofp nneg i64 %1 to double
  %7 = tail call double @uprv_log_77(double noundef %6)
  %8 = load i32, ptr %4, align 8, !tbaa !18
  %9 = sitofp i32 %8 to double
  %10 = tail call double @uprv_log_77(double noundef %9)
  %11 = fdiv double %7, %10
  %12 = fptosi double %11 to i16
  %13 = load i32, ptr %4, align 8, !tbaa !18
  %14 = add i16 %12, 1
  %15 = tail call noundef i64 @_ZN6icu_7710util64_powEjt(i32 noundef %13, i16 noundef zeroext %14)
  %16 = load i64, ptr %0, align 8, !tbaa !3
  %.not.i = icmp sgt i64 %15, %16
  %spec.select.i = select i1 %.not.i, i16 %12, i16 %14
  %17 = getelementptr inbounds nuw i8, ptr %0, i64 12
  store i16 %spec.select.i, ptr %17, align 4, !tbaa !19
  %18 = getelementptr inbounds nuw i8, ptr %0, i64 80
  %19 = load ptr, ptr %18, align 8, !tbaa !38
  %.not = icmp eq ptr %19, null
  br i1 %.not, label %25, label %20

20:                                               ; preds = %_ZNK6icu_776NFRule16expectedExponentEv.exit
  %21 = load i32, ptr %4, align 8, !tbaa !18
  %22 = load ptr, ptr %19, align 8, !tbaa !24
  %23 = getelementptr inbounds nuw i8, ptr %22, i64 32
  %24 = load ptr, ptr %23, align 8
  tail call void %24(ptr noundef nonnull align 8 dereferenceable(32) %19, i32 noundef %21, i16 noundef signext %spec.select.i, ptr noundef nonnull align 4 dereferenceable(4) %2)
  br label %25

25:                                               ; preds = %20, %_ZNK6icu_776NFRule16expectedExponentEv.exit
  %26 = getelementptr inbounds nuw i8, ptr %0, i64 88
  %27 = load ptr, ptr %26, align 8, !tbaa !39
  %.not4 = icmp eq ptr %27, null
  br i1 %.not4, label %36, label %28

28:                                               ; preds = %25
  %29 = load i32, ptr %4, align 8, !tbaa !18
  %30 = load i16, ptr %17, align 4, !tbaa !19
  %31 = load ptr, ptr %27, align 8, !tbaa !24
  %32 = getelementptr inbounds nuw i8, ptr %31, i64 32
  %33 = load ptr, ptr %32, align 8
  tail call void %33(ptr noundef nonnull align 8 dereferenceable(32) %27, i32 noundef %29, i16 noundef signext %30, ptr noundef nonnull align 4 dereferenceable(4) %2)
  br label %36

34:                                               ; preds = %3
  %35 = getelementptr inbounds nuw i8, ptr %0, i64 12
  store i16 0, ptr %35, align 4, !tbaa !19
  br label %36

36:                                               ; preds = %25, %28, %34
  ret void
}